; Listing generated by Microsoft (R) Optimizing Compiler Version 19.23.28106.4 

include listing.inc

INCLUDELIB MSVCRTD
INCLUDELIB OLDNAMES

CONST	SEGMENT
$SG270410 DB	'invalid argument', 00H
	ORG $+3
$SG270411 DB	'%s', 00H
	ORG $+9
$SG270412 DB	'C:\Program Files (x86)\Microsoft Visual Studio\2019\Comm'
	DB	'unity\VC\Tools\MSVC\14.23.28105\include\xmemory', 00H
	ORG $+8
$SG270413 DB	'C', 00H, ':', 00H, '\', 00H, 'P', 00H, 'r', 00H, 'o', 00H
	DB	'g', 00H, 'r', 00H, 'a', 00H, 'm', 00H, ' ', 00H, 'F', 00H, 'i'
	DB	00H, 'l', 00H, 'e', 00H, 's', 00H, ' ', 00H, '(', 00H, 'x', 00H
	DB	'8', 00H, '6', 00H, ')', 00H, '\', 00H, 'M', 00H, 'i', 00H, 'c'
	DB	00H, 'r', 00H, 'o', 00H, 's', 00H, 'o', 00H, 'f', 00H, 't', 00H
	DB	' ', 00H, 'V', 00H, 'i', 00H, 's', 00H, 'u', 00H, 'a', 00H, 'l'
	DB	00H, ' ', 00H, 'S', 00H, 't', 00H, 'u', 00H, 'd', 00H, 'i', 00H
	DB	'o', 00H, '\', 00H, '2', 00H, '0', 00H, '1', 00H, '9', 00H, '\'
	DB	00H, 'C', 00H, 'o', 00H, 'm', 00H, 'm', 00H, 'u', 00H, 'n', 00H
	DB	'i', 00H, 't', 00H, 'y', 00H, '\', 00H, 'V', 00H, 'C', 00H, '\'
	DB	00H, 'T', 00H, 'o', 00H, 'o', 00H, 'l', 00H, 's', 00H, '\', 00H
	DB	'M', 00H, 'S', 00H, 'V', 00H, 'C', 00H, '\', 00H, '1', 00H, '4'
	DB	00H, '.', 00H, '2', 00H, '3', 00H, '.', 00H, '2', 00H, '8', 00H
	DB	'1', 00H, '0', 00H, '5', 00H, '\', 00H, 'i', 00H, 'n', 00H, 'c'
	DB	00H, 'l', 00H, 'u', 00H, 'd', 00H, 'e', 00H, '\', 00H, 'x', 00H
	DB	'm', 00H, 'e', 00H, 'm', 00H, 'o', 00H, 'r', 00H, 'y', 00H, 00H
	DB	00H
$SG270414 DB	's', 00H, 't', 00H, 'd', 00H, ':', 00H, ':', 00H, '_', 00H
	DB	'A', 00H, 'l', 00H, 'l', 00H, 'o', 00H, 'c', 00H, 'a', 00H, 't'
	DB	00H, 'e', 00H, '_', 00H, 'm', 00H, 'a', 00H, 'n', 00H, 'u', 00H
	DB	'a', 00H, 'l', 00H, 'l', 00H, 'y', 00H, '_', 00H, 'v', 00H, 'e'
	DB	00H, 'c', 00H, 't', 00H, 'o', 00H, 'r', 00H, '_', 00H, 'a', 00H
	DB	'l', 00H, 'i', 00H, 'g', 00H, 'n', 00H, 'e', 00H, 'd', 00H, 00H
	DB	00H
	ORG $+2
$SG270415 DB	'"', 00H, 'i', 00H, 'n', 00H, 'v', 00H, 'a', 00H, 'l', 00H
	DB	'i', 00H, 'd', 00H, ' ', 00H, 'a', 00H, 'r', 00H, 'g', 00H, 'u'
	DB	00H, 'm', 00H, 'e', 00H, 'n', 00H, 't', 00H, '"', 00H, 00H, 00H
	ORG $+10
$SG270610 DB	'C:\Program Files (x86)\Microsoft Visual Studio\2019\Comm'
	DB	'unity\VC\Tools\MSVC\14.23.28105\include\xlocale', 00H
$SG265243 DB	'D:\Qt\5.12.5\msvc2017_64\include\QtCore\qmetatype.h', 00H
	ORG $+4
$SG265244 DB	'qRegisterNormalizedMetaType was called with a not normal'
	DB	'ized type name, please call qRegisterMetaType instead.', 00H
	ORG $+1
$SG265245 DB	'qRegisterNormalizedMetaType', 00H
	ORG $+4
$SG265582 DB	'D:\Qt\5.12.5\msvc2017_64\include\QtCore\qmetatype.h', 00H
	ORG $+12
$SG265583 DB	'qRegisterNormalizedMetaType was called with a not normal'
	DB	'ized type name, please call qRegisterMetaType instead.', 00H
	ORG $+1
$SG265584 DB	'qRegisterNormalizedMetaType', 00H
	ORG $+4
$SG265921 DB	'D:\Qt\5.12.5\msvc2017_64\include\QtCore\qmetatype.h', 00H
	ORG $+12
$SG265922 DB	'qRegisterNormalizedMetaType was called with a not normal'
	DB	'ized type name, please call qRegisterMetaType instead.', 00H
	ORG $+1
$SG265923 DB	'qRegisterNormalizedMetaType', 00H
	ORG $+4
?qt_meta_stringdata_Application@@3Uqt_meta_stringdata_Application_t@@B DD 0ffffffffH ; qt_meta_stringdata_Application
	DD	0bH
	DD	00H
	ORG $+4
	DQ	00000000000000d8H
	DD	0ffffffffH
	DD	0cH
	DD	00H
	ORG $+4
	DQ	00000000000000ccH
	DD	0ffffffffH
	DD	00H
	DD	00H
	ORG $+4
	DQ	00000000000000c1H
	DD	0ffffffffH
	DD	014H
	DD	00H
	ORG $+4
	DQ	00000000000000aaH
	DD	0ffffffffH
	DD	06H
	DD	00H
	ORG $+4
	DQ	00000000000000a7H
	DD	0ffffffffH
	DD	08H
	DD	00H
	ORG $+4
	DQ	0000000000000096H
	DD	0ffffffffH
	DD	03H
	DD	00H
	ORG $+4
	DQ	0000000000000087H
	DD	0ffffffffH
	DD	0fH
	DD	00H
	ORG $+4
	DQ	0000000000000073H
	DD	0ffffffffH
	DD	0eH
	DD	00H
	ORG $+4
	DQ	000000000000006bH
	DB	041H
	DB	070H
	DB	070H
	DB	06cH
	DB	069H
	DB	063H
	DB	061H
	DB	074H
	DB	069H
	DB	06fH
	DB	06eH
	DB	00H
	DB	063H
	DB	072H
	DB	065H
	DB	061H
	DB	074H
	DB	065H
	DB	044H
	DB	069H
	DB	061H
	DB	06cH
	DB	06fH
	DB	067H
	DB	00H
	DB	00H
	DB	041H
	DB	062H
	DB	073H
	DB	074H
	DB	072H
	DB	061H
	DB	063H
	DB	074H
	DB	044H
	DB	069H
	DB	061H
	DB	06cH
	DB	06fH
	DB	067H
	DB	046H
	DB	061H
	DB	062H
	DB	072H
	DB	069H
	DB	063H
	DB	00H
	DB	066H
	DB	061H
	DB	062H
	DB	072H
	DB	069H
	DB	063H
	DB	00H
	DB	053H
	DB	065H
	DB	074H
	DB	074H
	DB	069H
	DB	06eH
	DB	067H
	DB	073H
	DB	00H
	DB	073H
	DB	065H
	DB	074H
	DB	00H
	DB	074H
	DB	072H
	DB	069H
	DB	067H
	DB	067H
	DB	065H
	DB	072H
	DB	052H
	DB	06fH
	DB	074H
	DB	061H
	DB	074H
	DB	069H
	DB	06fH
	DB	06eH
	DB	00H
	DB	074H
	DB	06fH
	DB	067H
	DB	067H
	DB	06cH
	DB	065H
	DB	052H
	DB	06fH
	DB	074H
	DB	061H
	DB	074H
	DB	069H
	DB	06fH
	DB	06eH
	DB	00H
	ORG $+6
?qt_meta_data_Application@@3QBIB DD 08H			; qt_meta_data_Application
	DD	00H
	DD	00H
	DD	00H
	DD	03H
	DD	0eH
	DD	00H
	DD	00H
	DD	00H
	DD	00H
	DD	00H
	DD	00H
	DD	00H
	DD	00H
	DD	01H
	DD	02H
	DD	01dH
	DD	02H
	DD	0aH
	DD	07H
	DD	00H
	DD	022H
	DD	02H
	DD	08H
	DD	08H
	DD	00H
	DD	023H
	DD	02H
	DD	08H
	DD	02bH
	DD	080000003H
	DD	080000005H
	DD	04H
	DD	06H
	DD	02bH
	DD	02bH
	DD	00H
	ORG $+4
$SG266751 DB	'D:\Qt\5.12.5\msvc2017_64\include\QtCore\qmetatype.h', 00H
	ORG $+4
$SG266752 DB	'qRegisterNormalizedMetaType was called with a not normal'
	DB	'ized type name, please call qRegisterMetaType instead.', 00H
	ORG $+1
$SG266753 DB	'qRegisterNormalizedMetaType', 00H
	ORG $+4
$SG267156 DB	'D:\Qt\5.12.5\msvc2017_64\include\QtCore\qmetatype.h', 00H
	ORG $+12
$SG267157 DB	'qRegisterNormalizedMetaType was called with a not normal'
	DB	'ized type name, please call qRegisterMetaType instead.', 00H
	ORG $+1
$SG267158 DB	'qRegisterNormalizedMetaType', 00H
	ORG $+4
$SG267549 DB	'D:\Qt\5.12.5\msvc2017_64\include\QtCore\qmetatype.h', 00H
	ORG $+12
$SG267550 DB	'qRegisterNormalizedMetaType was called with a not normal'
	DB	'ized type name, please call qRegisterMetaType instead.', 00H
	ORG $+1
$SG267551 DB	'qRegisterNormalizedMetaType', 00H
	ORG $+4
$SG267942 DB	'D:\Qt\5.12.5\msvc2017_64\include\QtCore\qmetatype.h', 00H
	ORG $+12
$SG267943 DB	'qRegisterNormalizedMetaType was called with a not normal'
	DB	'ized type name, please call qRegisterMetaType instead.', 00H
	ORG $+1
$SG267944 DB	'qRegisterNormalizedMetaType', 00H
	ORG $+4
$SG268335 DB	'D:\Qt\5.12.5\msvc2017_64\include\QtCore\qmetatype.h', 00H
	ORG $+12
$SG268336 DB	'qRegisterNormalizedMetaType was called with a not normal'
	DB	'ized type name, please call qRegisterMetaType instead.', 00H
	ORG $+1
$SG268337 DB	'qRegisterNormalizedMetaType', 00H
	ORG $+4
$SG268728 DB	'D:\Qt\5.12.5\msvc2017_64\include\QtCore\qmetatype.h', 00H
	ORG $+12
$SG268729 DB	'qRegisterNormalizedMetaType was called with a not normal'
	DB	'ized type name, please call qRegisterMetaType instead.', 00H
	ORG $+1
$SG268730 DB	'qRegisterNormalizedMetaType', 00H
	ORG $+4
$SG269121 DB	'D:\Qt\5.12.5\msvc2017_64\include\QtCore\qmetatype.h', 00H
	ORG $+12
$SG269122 DB	'qRegisterNormalizedMetaType was called with a not normal'
	DB	'ized type name, please call qRegisterMetaType instead.', 00H
	ORG $+1
$SG269123 DB	'qRegisterNormalizedMetaType', 00H
	ORG $+4
$SG269514 DB	'D:\Qt\5.12.5\msvc2017_64\include\QtCore\qmetatype.h', 00H
	ORG $+12
$SG269515 DB	'qRegisterNormalizedMetaType was called with a not normal'
	DB	'ized type name, please call qRegisterMetaType instead.', 00H
	ORG $+1
$SG269516 DB	'qRegisterNormalizedMetaType', 00H
	ORG $+4
$SG261653 DB	'D:\Qt\5.12.5\msvc2017_64\include\QtCore\qmetatype.h', 00H
	ORG $+12
$SG261654 DB	'qRegisterNormalizedMetaType was called with a not normal'
	DB	'ized type name, please call qRegisterMetaType instead.', 00H
	ORG $+1
$SG261655 DB	'qRegisterNormalizedMetaType', 00H
	ORG $+4
$SG269907 DB	'D:\Qt\5.12.5\msvc2017_64\include\QtCore\qmetatype.h', 00H
	ORG $+12
$SG269908 DB	'qRegisterNormalizedMetaType was called with a not normal'
	DB	'ized type name, please call qRegisterMetaType instead.', 00H
	ORG $+1
$SG269909 DB	'qRegisterNormalizedMetaType', 00H
CONST	ENDS
PUBLIC	?__empty_global_delete@@YAXPEAX@Z		; __empty_global_delete
PUBLIC	?__empty_global_delete@@YAXPEAX_K@Z		; __empty_global_delete
PUBLIC	??C?$QScopedPointer@VQObjectData@@U?$QScopedPointerDeleter@VQObjectData@@@@@@QEBAPEAVQObjectData@@XZ ; QScopedPointer<QObjectData,QScopedPointerDeleter<QObjectData> >::operator->
PUBLIC	?metaObject@Application@@UEBAPEBUQMetaObject@@XZ ; Application::metaObject
PUBLIC	?qt_metacast@Application@@UEAAPEAXPEBD@Z	; Application::qt_metacast
PUBLIC	?qt_metacall@Application@@UEAAHW4Call@QMetaObject@@HPEAPEAX@Z ; Application::qt_metacall
PUBLIC	?qt_static_metacall@Application@@CAXPEAVQObject@@W4Call@QMetaObject@@HPEAPEAX@Z ; Application::qt_static_metacall
PUBLIC	?staticMetaObject@Application@@2UQMetaObject@@B	; Application::staticMetaObject
EXTRN	strcmp:PROC
EXTRN	__imp_?dynamicMetaObject@QObjectData@@QEBAPEAUQMetaObject@@XZ:PROC
EXTRN	__imp_?qt_metacast@QMainWindow@@UEAAPEAXPEBD@Z:PROC
EXTRN	__imp_?qt_metacall@QMainWindow@@UEAAHW4Call@QMetaObject@@HPEAPEAX@Z:PROC
EXTRN	?createDialog@Application@@QEAAXAEBVAbstractDialogFabric@@AEBVSettings@@@Z:PROC ; Application::createDialog
EXTRN	?triggerRotation@Application@@AEAAXXZ:PROC	; Application::triggerRotation
EXTRN	?toggleRotation@Application@@AEAAXXZ:PROC	; Application::toggleRotation
EXTRN	__imp_?staticMetaObject@QMainWindow@@2UQMetaObject@@B:BYTE
_BSS	SEGMENT
?staticMetaObject@Application@@2UQMetaObject@@B DB 030H DUP (?) ; Application::staticMetaObject
_BSS	ENDS
pdata	SEGMENT
$pdata$?metaObject@Application@@UEBAPEBUQMetaObject@@XZ DD imagerel $LN5
	DD	imagerel $LN5+88
	DD	imagerel $unwind$?metaObject@Application@@UEBAPEBUQMetaObject@@XZ
$pdata$?qt_metacast@Application@@UEAAPEAXPEBD@Z DD imagerel $LN5
	DD	imagerel $LN5+75
	DD	imagerel $unwind$?qt_metacast@Application@@UEAAPEAXPEBD@Z
$pdata$?qt_metacall@Application@@UEAAHW4Call@QMetaObject@@HPEAPEAX@Z DD imagerel $LN9
	DD	imagerel $LN9+174
	DD	imagerel $unwind$?qt_metacall@Application@@UEAAHW4Call@QMetaObject@@HPEAPEAX@Z
$pdata$?qt_static_metacall@Application@@CAXPEAVQObject@@W4Call@QMetaObject@@HPEAPEAX@Z DD imagerel $LN10
	DD	imagerel $LN10+146
	DD	imagerel $unwind$?qt_static_metacall@Application@@CAXPEAVQObject@@W4Call@QMetaObject@@HPEAPEAX@Z
pdata	ENDS
CRT$XCU	SEGMENT
??staticMetaObject$initializer$@Application@@2P6AXXZEA@@3P6AXXZEA DQ FLAT:??__E?staticMetaObject@Application@@2UQMetaObject@@B@@YAXXZ ; ??staticMetaObject$initializer$@Application@@2P6AXXZEA@@3P6AXXZEA
CRT$XCU	ENDS
xdata	SEGMENT
$unwind$?metaObject@Application@@UEBAPEBUQMetaObject@@XZ DD 010901H
	DD	06209H
$unwind$?qt_metacast@Application@@UEAAPEAXPEBD@Z DD 010e01H
	DD	0420eH
$unwind$?qt_metacall@Application@@UEAAHW4Call@QMetaObject@@HPEAPEAX@Z DD 011701H
	DD	04217H
$unwind$?qt_static_metacall@Application@@CAXPEAVQObject@@W4Call@QMetaObject@@HPEAPEAX@Z DD 011701H
	DD	06217H
xdata	ENDS
; Function compile flags: /Odtp
;	COMDAT ??__E?staticMetaObject@Application@@2UQMetaObject@@B@@YAXXZ
text$di	SEGMENT
??__E?staticMetaObject@Application@@2UQMetaObject@@B@@YAXXZ PROC ; `dynamic initializer for 'Application::staticMetaObject'', COMDAT
; File D:\SiliconVisualiser\SiliconVisualiser\x64\Debug\moc\moc_Application.cpp
; Line 92
	mov	rax, QWORD PTR __imp_?staticMetaObject@QMainWindow@@2UQMetaObject@@B
	mov	QWORD PTR ?staticMetaObject@Application@@2UQMetaObject@@B, rax
; Line 93
	lea	rax, OFFSET FLAT:?qt_meta_stringdata_Application@@3Uqt_meta_stringdata_Application_t@@B
	mov	QWORD PTR ?staticMetaObject@Application@@2UQMetaObject@@B+8, rax
; Line 94
	lea	rax, OFFSET FLAT:?qt_meta_data_Application@@3QBIB
	mov	QWORD PTR ?staticMetaObject@Application@@2UQMetaObject@@B+16, rax
; Line 95
	lea	rax, OFFSET FLAT:?qt_static_metacall@Application@@CAXPEAVQObject@@W4Call@QMetaObject@@HPEAPEAX@Z ; Application::qt_static_metacall
	mov	QWORD PTR ?staticMetaObject@Application@@2UQMetaObject@@B+24, rax
; Line 96
	mov	QWORD PTR ?staticMetaObject@Application@@2UQMetaObject@@B+32, 0
; Line 97
	mov	QWORD PTR ?staticMetaObject@Application@@2UQMetaObject@@B+40, 0
	ret	0
??__E?staticMetaObject@Application@@2UQMetaObject@@B@@YAXXZ ENDP ; `dynamic initializer for 'Application::staticMetaObject''
text$di	ENDS
; Function compile flags: /Odtp
_TEXT	SEGMENT
tv69 = 32
_t$1 = 40
_o$ = 64
_c$ = 72
_id$ = 80
_a$ = 88
?qt_static_metacall@Application@@CAXPEAVQObject@@W4Call@QMetaObject@@HPEAPEAX@Z PROC ; Application::qt_static_metacall
; File D:\SiliconVisualiser\SiliconVisualiser\x64\Debug\moc\moc_Application.cpp
; Line 78
$LN10:
	mov	QWORD PTR [rsp+32], r9
	mov	DWORD PTR [rsp+24], r8d
	mov	DWORD PTR [rsp+16], edx
	mov	QWORD PTR [rsp+8], rcx
	sub	rsp, 56					; 00000038H
; Line 79
	cmp	DWORD PTR _c$[rsp], 0
	jne	SHORT $LN4@qt_static_
; Line 80
	mov	rax, QWORD PTR _o$[rsp]
	mov	QWORD PTR _t$1[rsp], rax
; Line 82
	mov	eax, DWORD PTR _id$[rsp]
	mov	DWORD PTR tv69[rsp], eax
	cmp	DWORD PTR tv69[rsp], 0
	je	SHORT $LN5@qt_static_
	cmp	DWORD PTR tv69[rsp], 1
	je	SHORT $LN6@qt_static_
	cmp	DWORD PTR tv69[rsp], 2
	je	SHORT $LN7@qt_static_
	jmp	SHORT $LN8@qt_static_
$LN5@qt_static_:
; Line 83
	mov	eax, 8
	imul	rax, rax, 2
	mov	ecx, 8
	imul	rcx, rcx, 1
	mov	rdx, QWORD PTR _a$[rsp]
	mov	r8, QWORD PTR [rdx+rax]
	mov	rax, QWORD PTR _a$[rsp]
	mov	rdx, QWORD PTR [rax+rcx]
	mov	rcx, QWORD PTR _t$1[rsp]
	call	?createDialog@Application@@QEAAXAEBVAbstractDialogFabric@@AEBVSettings@@@Z ; Application::createDialog
	jmp	SHORT $LN2@qt_static_
$LN6@qt_static_:
; Line 84
	mov	rcx, QWORD PTR _t$1[rsp]
	call	?triggerRotation@Application@@AEAAXXZ	; Application::triggerRotation
	jmp	SHORT $LN2@qt_static_
$LN7@qt_static_:
; Line 85
	mov	rcx, QWORD PTR _t$1[rsp]
	call	?toggleRotation@Application@@AEAAXXZ	; Application::toggleRotation
$LN8@qt_static_:
$LN2@qt_static_:
$LN4@qt_static_:
; Line 89
	add	rsp, 56					; 00000038H
	ret	0
?qt_static_metacall@Application@@CAXPEAVQObject@@W4Call@QMetaObject@@HPEAPEAX@Z ENDP ; Application::qt_static_metacall
_TEXT	ENDS
; Function compile flags: /Odtp
_TEXT	SEGMENT
this$ = 48
_c$ = 56
_id$ = 64
_a$ = 72
?qt_metacall@Application@@UEAAHW4Call@QMetaObject@@HPEAPEAX@Z PROC ; Application::qt_metacall
; File D:\SiliconVisualiser\SiliconVisualiser\x64\Debug\moc\moc_Application.cpp
; Line 115
$LN9:
	mov	QWORD PTR [rsp+32], r9
	mov	DWORD PTR [rsp+24], r8d
	mov	DWORD PTR [rsp+16], edx
	mov	QWORD PTR [rsp+8], rcx
	sub	rsp, 40					; 00000028H
; Line 116
	mov	r9, QWORD PTR _a$[rsp]
	mov	r8d, DWORD PTR _id$[rsp]
	mov	edx, DWORD PTR _c$[rsp]
	mov	rcx, QWORD PTR this$[rsp]
	call	QWORD PTR __imp_?qt_metacall@QMainWindow@@UEAAHW4Call@QMetaObject@@HPEAPEAX@Z
	mov	DWORD PTR _id$[rsp], eax
; Line 117
	cmp	DWORD PTR _id$[rsp], 0
	jge	SHORT $LN2@qt_metacal
; Line 118
	mov	eax, DWORD PTR _id$[rsp]
	jmp	SHORT $LN1@qt_metacal
$LN2@qt_metacal:
; Line 119
	cmp	DWORD PTR _c$[rsp], 0
	jne	SHORT $LN3@qt_metacal
; Line 120
	cmp	DWORD PTR _id$[rsp], 3
	jge	SHORT $LN5@qt_metacal
; Line 121
	mov	r9, QWORD PTR _a$[rsp]
	mov	r8d, DWORD PTR _id$[rsp]
	mov	edx, DWORD PTR _c$[rsp]
	mov	rcx, QWORD PTR this$[rsp]
	call	?qt_static_metacall@Application@@CAXPEAVQObject@@W4Call@QMetaObject@@HPEAPEAX@Z ; Application::qt_static_metacall
$LN5@qt_metacal:
; Line 122
	mov	eax, DWORD PTR _id$[rsp]
	sub	eax, 3
	mov	DWORD PTR _id$[rsp], eax
	jmp	SHORT $LN4@qt_metacal
$LN3@qt_metacal:
; Line 123
	cmp	DWORD PTR _c$[rsp], 12
	jne	SHORT $LN6@qt_metacal
; Line 124
	cmp	DWORD PTR _id$[rsp], 3
	jge	SHORT $LN7@qt_metacal
; Line 125
	mov	eax, 8
	imul	rax, rax, 0
	mov	rcx, QWORD PTR _a$[rsp]
	mov	rax, QWORD PTR [rcx+rax]
	mov	DWORD PTR [rax], -1
$LN7@qt_metacal:
; Line 126
	mov	eax, DWORD PTR _id$[rsp]
	sub	eax, 3
	mov	DWORD PTR _id$[rsp], eax
$LN6@qt_metacal:
$LN4@qt_metacal:
; Line 128
	mov	eax, DWORD PTR _id$[rsp]
$LN1@qt_metacal:
; Line 129
	add	rsp, 40					; 00000028H
	ret	0
?qt_metacall@Application@@UEAAHW4Call@QMetaObject@@HPEAPEAX@Z ENDP ; Application::qt_metacall
_TEXT	ENDS
; Function compile flags: /Odtp
_TEXT	SEGMENT
this$ = 48
_clname$ = 56
?qt_metacast@Application@@UEAAPEAXPEBD@Z PROC		; Application::qt_metacast
; File D:\SiliconVisualiser\SiliconVisualiser\x64\Debug\moc\moc_Application.cpp
; Line 107
$LN5:
	mov	QWORD PTR [rsp+16], rdx
	mov	QWORD PTR [rsp+8], rcx
	sub	rsp, 40					; 00000028H
; Line 108
	cmp	QWORD PTR _clname$[rsp], 0
	jne	SHORT $LN2@qt_metacas
	xor	eax, eax
	jmp	SHORT $LN1@qt_metacas
$LN2@qt_metacas:
; Line 109
	lea	rdx, OFFSET FLAT:?qt_meta_stringdata_Application@@3Uqt_meta_stringdata_Application_t@@B+216
	mov	rcx, QWORD PTR _clname$[rsp]
	call	strcmp
	test	eax, eax
	jne	SHORT $LN3@qt_metacas
; Line 110
	mov	rax, QWORD PTR this$[rsp]
	jmp	SHORT $LN1@qt_metacas
$LN3@qt_metacas:
; Line 111
	mov	rdx, QWORD PTR _clname$[rsp]
	mov	rcx, QWORD PTR this$[rsp]
	call	QWORD PTR __imp_?qt_metacast@QMainWindow@@UEAAPEAXPEBD@Z
$LN1@qt_metacas:
; Line 112
	add	rsp, 40					; 00000028H
	ret	0
?qt_metacast@Application@@UEAAPEAXPEBD@Z ENDP		; Application::qt_metacast
_TEXT	ENDS
; Function compile flags: /Odtp
_TEXT	SEGMENT
tv82 = 32
this$ = 64
?metaObject@Application@@UEBAPEBUQMetaObject@@XZ PROC	; Application::metaObject
; File D:\SiliconVisualiser\SiliconVisualiser\x64\Debug\moc\moc_Application.cpp
; Line 102
$LN5:
	mov	QWORD PTR [rsp+8], rcx
	sub	rsp, 56					; 00000038H
; Line 103
	mov	rax, QWORD PTR this$[rsp]
	add	rax, 8
	mov	rcx, rax
	call	??C?$QScopedPointer@VQObjectData@@U?$QScopedPointerDeleter@VQObjectData@@@@@@QEBAPEAVQObjectData@@XZ ; QScopedPointer<QObjectData,QScopedPointerDeleter<QObjectData> >::operator->
	cmp	QWORD PTR [rax+40], 0
	je	SHORT $LN3@metaObject
	mov	rax, QWORD PTR this$[rsp]
	add	rax, 8
	mov	rcx, rax
	call	??C?$QScopedPointer@VQObjectData@@U?$QScopedPointerDeleter@VQObjectData@@@@@@QEBAPEAVQObjectData@@XZ ; QScopedPointer<QObjectData,QScopedPointerDeleter<QObjectData> >::operator->
	mov	rcx, rax
	call	QWORD PTR __imp_?dynamicMetaObject@QObjectData@@QEBAPEAUQMetaObject@@XZ
	mov	QWORD PTR tv82[rsp], rax
	jmp	SHORT $LN4@metaObject
$LN3@metaObject:
	lea	rax, OFFSET FLAT:?staticMetaObject@Application@@2UQMetaObject@@B ; Application::staticMetaObject
	mov	QWORD PTR tv82[rsp], rax
$LN4@metaObject:
	mov	rax, QWORD PTR tv82[rsp]
; Line 104
	add	rsp, 56					; 00000038H
	ret	0
?metaObject@Application@@UEBAPEBUQMetaObject@@XZ ENDP	; Application::metaObject
_TEXT	ENDS
; Function compile flags: /Odtp
;	COMDAT ??C?$QScopedPointer@VQObjectData@@U?$QScopedPointerDeleter@VQObjectData@@@@@@QEBAPEAVQObjectData@@XZ
_TEXT	SEGMENT
this$ = 8
??C?$QScopedPointer@VQObjectData@@U?$QScopedPointerDeleter@VQObjectData@@@@@@QEBAPEAVQObjectData@@XZ PROC ; QScopedPointer<QObjectData,QScopedPointerDeleter<QObjectData> >::operator->, COMDAT
; File D:\Qt\5.12.5\msvc2017_64\include\QtCore\qscopedpointer.h
; Line 117
	mov	QWORD PTR [rsp+8], rcx
; Line 118
	mov	rax, QWORD PTR this$[rsp]
	mov	rax, QWORD PTR [rax]
; Line 119
	ret	0
??C?$QScopedPointer@VQObjectData@@U?$QScopedPointerDeleter@VQObjectData@@@@@@QEBAPEAVQObjectData@@XZ ENDP ; QScopedPointer<QObjectData,QScopedPointerDeleter<QObjectData> >::operator->
_TEXT	ENDS
; Function compile flags: /Odtp
;	COMDAT ?__empty_global_delete@@YAXPEAX_K@Z
_TEXT	SEGMENT
__formal$ = 8
__formal$ = 16
?__empty_global_delete@@YAXPEAX_K@Z PROC		; __empty_global_delete, COMDAT
; File D:\SiliconVisualiser\SiliconVisualiser\x64\Debug\moc\moc_Application.cpp
; Line 132
	mov	QWORD PTR [rsp+16], rdx
	mov	QWORD PTR [rsp+8], rcx
	ret	0
?__empty_global_delete@@YAXPEAX_K@Z ENDP		; __empty_global_delete
_TEXT	ENDS
; Function compile flags: /Odtp
;	COMDAT ?__empty_global_delete@@YAXPEAX@Z
_TEXT	SEGMENT
__formal$ = 8
?__empty_global_delete@@YAXPEAX@Z PROC			; __empty_global_delete, COMDAT
; File D:\SiliconVisualiser\SiliconVisualiser\x64\Debug\moc\moc_Application.cpp
; Line 132
	mov	QWORD PTR [rsp+8], rcx
	ret	0
?__empty_global_delete@@YAXPEAX@Z ENDP			; __empty_global_delete
_TEXT	ENDS
END
